target datalayout = "e-m:e-p270:32:32-p271:32:32-p272:64:64-i64:64-i128:128-f80:128-n8:16:32:64-S128"
target triple = "x86_64-unknown-linux-gnu"

%"struct.facebook::velox::StlAllocator" = type { ptr }
%"struct.facebook::velox::StlAllocator.2" = type { ptr }
%"class.facebook::velox::common::hll::DenseHll" = type { i8, i8, i32, %"class.std::vector", i16, %"class.std::vector.0", %"class.std::vector" }
%"class.std::vector.0" = type { %"struct.std::_Vector_base.1" }
%"struct.std::_Vector_base.1" = type { %"struct.std::_Vector_base<unsigned short, facebook::velox::StlAllocator<unsigned short>>::_Vector_impl" }
%"struct.std::_Vector_base<unsigned short, facebook::velox::StlAllocator<unsigned short>>::_Vector_impl" = type { %"struct.facebook::velox::StlAllocator.2", %"struct.std::_Vector_base<unsigned short, facebook::velox::StlAllocator<unsigned short>>::_Vector_impl_data" }
%"struct.std::_Vector_base<unsigned short, facebook::velox::StlAllocator<unsigned short>>::_Vector_impl_data" = type { ptr, ptr, ptr }
%"class.std::vector" = type { %"struct.std::_Vector_base" }
%"struct.std::_Vector_base" = type { %"struct.std::_Vector_base<signed char, facebook::velox::StlAllocator<signed char>>::_Vector_impl" }
%"struct.std::_Vector_base<signed char, facebook::velox::StlAllocator<signed char>>::_Vector_impl" = type { %"struct.facebook::velox::StlAllocator", %"struct.std::_Vector_base<signed char, facebook::velox::StlAllocator<signed char>>::_Vector_impl_data" }
%"struct.std::_Vector_base<signed char, facebook::velox::StlAllocator<signed char>>::_Vector_impl_data" = type { ptr, ptr, ptr }

; Function Attrs: mustprogress nounwind uwtable
define linkonce_odr noundef i32 @_ZN8facebook5velox6common3hll20numberOfLeadingZerosEmi(i64 noundef %hash, i32 noundef %indexBitLength) #1 comdat {
entry:
  %hash.addr = alloca i64, align 8
  %indexBitLength.addr = alloca i32, align 4
  store i64 %hash, ptr %hash.addr, align 8
  store i32 %indexBitLength, ptr %indexBitLength.addr, align 4
  %0 = load i64, ptr %hash.addr, align 8
  %1 = load i32, ptr %indexBitLength.addr, align 4
  %sh_prom = zext i32 %1 to i64
  %shl = shl i64 %0, %sh_prom
  %2 = load i32, ptr %indexBitLength.addr, align 4
  %sub = sub nsw i32 %2, 1
  %sh_prom1 = zext i32 %sub to i64
  %shl2 = shl i64 1, %sh_prom1
  %or = or i64 %shl, %shl2
  %3 = call i64 @llvm.ctlz.i64(i64 %or, i1 true)
  %cast = trunc i64 %3 to i32
  ret i32 %cast
}

; Function Attrs: mustprogress nounwind uwtable
define linkonce_odr noundef i32 @_ZN8facebook5velox6common3hll12computeIndexEmi(i64 noundef %hash, i32 noundef %indexBitLength) #1 comdat {
entry:
  %hash.addr = alloca i64, align 8
  %indexBitLength.addr = alloca i32, align 4
  store i64 %hash, ptr %hash.addr, align 8
  store i32 %indexBitLength, ptr %indexBitLength.addr, align 4
  %0 = load i64, ptr %hash.addr, align 8
  %1 = load i32, ptr %indexBitLength.addr, align 4
  %sub = sub nsw i32 64, %1
  %sh_prom = zext i32 %sub to i64
  %shr = lshr i64 %0, %sh_prom
  %conv = trunc i64 %shr to i32
  ret i32 %conv
}

; Function Attrs: mustprogress uwtable
define void @_ZN8facebook5velox6common3hll8DenseHll10insertHashEm(ptr noundef nonnull align 8 dereferenceable(112) %this, i64 noundef %hash) #0 align 2 {
entry:
  %this.addr = alloca ptr, align 8
  %hash.addr = alloca i64, align 8
  %index = alloca i32, align 4
  %value = alloca i32, align 4
  store ptr %this, ptr %this.addr, align 8
  store i64 %hash, ptr %hash.addr, align 8
  %this1 = load ptr, ptr %this.addr, align 8
  %0 = load i64, ptr %hash.addr, align 8
  %indexBitLength_ = getelementptr inbounds %"class.facebook::velox::common::hll::DenseHll", ptr %this1, i32 0, i32 0
  %1 = load i8, ptr %indexBitLength_, align 8
  %conv = sext i8 %1 to i32
  %call = call noundef i32 @_ZN8facebook5velox6common3hll12computeIndexEmi(i64 noundef %0, i32 noundef %conv)
  store i32 %call, ptr %index, align 4
  %2 = load i64, ptr %hash.addr, align 8
  %indexBitLength_2 = getelementptr inbounds %"class.facebook::velox::common::hll::DenseHll", ptr %this1, i32 0, i32 0
  %3 = load i8, ptr %indexBitLength_2, align 8
  %conv3 = sext i8 %3 to i32
  %call4 = call noundef i32 @_ZN8facebook5velox6common3hll20numberOfLeadingZerosEmi(i64 noundef %2, i32 noundef %conv3)
  %add = add nsw i32 %call4, 1
  store i32 %add, ptr %value, align 4
  %4 = load i32, ptr %index, align 4
  %5 = load i32, ptr %value, align 4
  %conv5 = trunc i32 %5 to i8
  call void @_ZN8facebook5velox6common3hll8DenseHll6insertEia(ptr noundef nonnull align 8 dereferenceable(112) %this1, i32 noundef %4, i8 noundef signext %conv5)
  ret void
}