; Function Attrs: mustprogress uwtable
define void @_ZN8facebook5velox6common3hll8DenseHll10insertHashEm(ptr noundef nonnull align 8 dereferenceable(112) %this, i64 noundef %hash) local_unnamed_addr #0 align 2 {
entry:
  %0 = load i8, ptr %this, align 8
  %conv = sext i8 %0 to i32
  %sub.i = sub nsw i32 64, %conv
  %sh_prom.i = zext nneg i32 %sub.i to i64
  %shr.i = lshr i64 %hash, %sh_prom.i
  %conv.i = trunc i64 %shr.i to i32
  %sh_prom.i2 = zext nneg i32 %conv to i64
  %shl.i = shl i64 %hash, %sh_prom.i2
  %sub.i3 = add nsw i32 %conv, -1
  %sh_prom1.i = zext nneg i32 %sub.i3 to i64
  %shl2.i = shl nuw i64 1, %sh_prom1.i
  %or.i = or i64 %shl2.i, %shl.i
  %1 = tail call range(i64 0, 65) i64 @llvm.ctlz.i64(i64 %or.i, i1 true)
  %2 = trunc nuw nsw i64 %1 to i8
  %conv5 = add nuw nsw i8 %2, 1
  tail call void @_ZN8facebook5velox6common3hll8DenseHll6insertEia(ptr noundef nonnull align 8 dereferenceable(112) %this, i32 noundef %conv.i, i8 noundef signext %conv5)
  ret void
}